target datalayout = "e-m:e-p270:32:32-p271:32:32-p272:64:64-i64:64-i128:128-f80:128-n8:16:32:64-S128"
target triple = "x86_64-pc-linux-gnu"

%"struct.boost::unit_test::results_reporter::(anonymous namespace)::results_reporter_impl" = type { %"class.boost::unit_test::test_tree_visitor", ptr, %"class.boost::scoped_ptr", i32, %"class.boost::scoped_ptr.0" }
%"class.boost::unit_test::test_tree_visitor" = type { ptr }
%"class.boost::scoped_ptr" = type { ptr }
%"class.boost::scoped_ptr.0" = type { ptr }
%"class.boost::unit_test::test_unit" = type { i32, %"class.boost::unit_test::basic_cstring", %"class.boost::unit_test::basic_cstring", i64, %"class.boost::unit_test::test_unit::readonly_property62", %"class.boost::unit_test::test_unit::readonly_property63", %"class.boost::unit_test::test_unit::readonly_property66", %"class.boost::unit_test::test_unit::readonly_property64", %"class.boost::unit_test::test_unit::readonly_property69", %"class.boost::unit_test::readwrite_property", %"class.boost::unit_test::readwrite_property", %"class.boost::unit_test::readwrite_property.21", %"class.boost::unit_test::readwrite_property.23", %"class.boost::unit_test::readwrite_property.24", %"class.boost::unit_test::readwrite_property.24", %"class.boost::unit_test::readwrite_property.23", %"class.boost::unit_test::readwrite_property.26", %"class.boost::unit_test::readwrite_property.33" }
%"class.boost::unit_test::basic_cstring" = type { ptr, ptr }
%"class.boost::unit_test::test_unit::readonly_property62" = type { %"class.boost::unit_test::readonly_property" }
%"class.boost::unit_test::readonly_property" = type { %"class.boost::unit_test::class_property" }
%"class.boost::unit_test::class_property" = type { i64 }
%"class.boost::unit_test::test_unit::readonly_property63" = type { %"class.boost::unit_test::readonly_property" }
%"class.boost::unit_test::test_unit::readonly_property66" = type { %"class.boost::unit_test::readonly_property.1" }
%"class.boost::unit_test::readonly_property.1" = type { %"class.boost::unit_test::class_property.2" }
%"class.boost::unit_test::class_property.2" = type { %"class.std::vector" }
%"class.std::vector" = type { %"struct.std::_Vector_base" }
%"struct.std::_Vector_base" = type { %"struct.std::_Vector_base<std::__cxx11::basic_string<char>, std::allocator<std::__cxx11::basic_string<char>>>::_Vector_impl" }
%"struct.std::_Vector_base<std::__cxx11::basic_string<char>, std::allocator<std::__cxx11::basic_string<char>>>::_Vector_impl" = type { %"struct.std::_Vector_base<std::__cxx11::basic_string<char>, std::allocator<std::__cxx11::basic_string<char>>>::_Vector_impl_data" }
%"struct.std::_Vector_base<std::__cxx11::basic_string<char>, std::allocator<std::__cxx11::basic_string<char>>>::_Vector_impl_data" = type { ptr, ptr, ptr }
%"class.boost::unit_test::test_unit::readonly_property64" = type { %"class.boost::unit_test::readonly_property.3" }
%"class.boost::unit_test::readonly_property.3" = type { %"class.boost::unit_test::class_property.4" }
%"class.boost::unit_test::class_property.4" = type { %"class.std::vector.5" }
%"class.std::vector.5" = type { %"struct.std::_Vector_base.6" }
%"struct.std::_Vector_base.6" = type { %"struct.std::_Vector_base<unsigned long, std::allocator<unsigned long>>::_Vector_impl" }
%"struct.std::_Vector_base<unsigned long, std::allocator<unsigned long>>::_Vector_impl" = type { %"struct.std::_Vector_base<unsigned long, std::allocator<unsigned long>>::_Vector_impl_data" }
%"struct.std::_Vector_base<unsigned long, std::allocator<unsigned long>>::_Vector_impl_data" = type { ptr, ptr, ptr }
%"class.boost::unit_test::test_unit::readonly_property69" = type { %"class.boost::unit_test::readonly_property.10" }
%"class.boost::unit_test::readonly_property.10" = type { %"class.boost::unit_test::class_property.11" }
%"class.boost::unit_test::class_property.11" = type { %"class.std::vector.12" }
%"class.std::vector.12" = type { %"struct.std::_Vector_base.13" }
%"struct.std::_Vector_base.13" = type { %"struct.std::_Vector_base<boost::function<boost::test_tools::assertion_result (unsigned long)>, std::allocator<boost::function<boost::test_tools::assertion_result (unsigned long)>>>::_Vector_impl" }
%"struct.std::_Vector_base<boost::function<boost::test_tools::assertion_result (unsigned long)>, std::allocator<boost::function<boost::test_tools::assertion_result (unsigned long)>>>::_Vector_impl" = type { %"struct.std::_Vector_base<boost::function<boost::test_tools::assertion_result (unsigned long)>, std::allocator<boost::function<boost::test_tools::assertion_result (unsigned long)>>>::_Vector_impl_data" }
%"struct.std::_Vector_base<boost::function<boost::test_tools::assertion_result (unsigned long)>, std::allocator<boost::function<boost::test_tools::assertion_result (unsigned long)>>>::_Vector_impl_data" = type { ptr, ptr, ptr }
%"class.boost::unit_test::readwrite_property" = type { %"class.boost::unit_test::class_property.17" }
%"class.boost::unit_test::class_property.17" = type { %"class.std::__cxx11::basic_string" }
%"class.std::__cxx11::basic_string" = type { %"struct.std::__cxx11::basic_string<char>::_Alloc_hider", i64, %union.anon }
%"struct.std::__cxx11::basic_string<char>::_Alloc_hider" = type { ptr }
%union.anon = type { i64, [8 x i8] }
%"class.boost::unit_test::readwrite_property.21" = type { %"class.boost::unit_test::class_property.22" }
%"class.boost::unit_test::class_property.22" = type { i32 }
%"class.boost::unit_test::readwrite_property.24" = type { %"class.boost::unit_test::class_property.25" }
%"class.boost::unit_test::class_property.25" = type { i32 }
%"class.boost::unit_test::readwrite_property.23" = type { %"class.boost::unit_test::class_property" }
%"class.boost::unit_test::readwrite_property.26" = type { %"class.boost::unit_test::class_property.27" }
%"class.boost::unit_test::class_property.27" = type { %"class.std::vector.28" }
%"class.std::vector.28" = type { %"struct.std::_Vector_base.29" }
%"struct.std::_Vector_base.29" = type { %"struct.std::_Vector_base<boost::shared_ptr<boost::unit_test::decorator::base>, std::allocator<boost::shared_ptr<boost::unit_test::decorator::base>>>::_Vector_impl" }
%"struct.std::_Vector_base<boost::shared_ptr<boost::unit_test::decorator::base>, std::allocator<boost::shared_ptr<boost::unit_test::decorator::base>>>::_Vector_impl" = type { %"struct.std::_Vector_base<boost::shared_ptr<boost::unit_test::decorator::base>, std::allocator<boost::shared_ptr<boost::unit_test::decorator::base>>>::_Vector_impl_data" }
%"struct.std::_Vector_base<boost::shared_ptr<boost::unit_test::decorator::base>, std::allocator<boost::shared_ptr<boost::unit_test::decorator::base>>>::_Vector_impl_data" = type { ptr, ptr, ptr }
%"class.boost::unit_test::readwrite_property.33" = type { %"class.boost::unit_test::class_property.34" }
%"class.boost::unit_test::class_property.34" = type { %"class.std::vector.35" }
%"class.std::vector.35" = type { %"struct.std::_Vector_base.36" }
%"struct.std::_Vector_base.36" = type { %"struct.std::_Vector_base<boost::shared_ptr<boost::unit_test::test_unit_fixture>, std::allocator<boost::shared_ptr<boost::unit_test::test_unit_fixture>>>::_Vector_impl" }
%"struct.std::_Vector_base<boost::shared_ptr<boost::unit_test::test_unit_fixture>, std::allocator<boost::shared_ptr<boost::unit_test::test_unit_fixture>>>::_Vector_impl" = type { %"struct.std::_Vector_base<boost::shared_ptr<boost::unit_test::test_unit_fixture>, std::allocator<boost::shared_ptr<boost::unit_test::test_unit_fixture>>>::_Vector_impl_data" }
%"struct.std::_Vector_base<boost::shared_ptr<boost::unit_test::test_unit_fixture>, std::allocator<boost::shared_ptr<boost::unit_test::test_unit_fixture>>>::_Vector_impl_data" = type { ptr, ptr, ptr }
%"class.boost::unit_test::test_results" = type <{ %"class.boost::unit_test::test_results::readonly_property59", %"class.boost::unit_test::test_results::readonly_property59", %"class.boost::unit_test::test_results::readonly_property59", %"class.boost::unit_test::test_results::readonly_property59", %"class.boost::unit_test::test_results::readonly_property59", %"class.boost::unit_test::test_results::readonly_property59", %"class.boost::unit_test::test_results::readonly_property59", %"class.boost::unit_test::test_results::readonly_property59", %"class.boost::unit_test::test_results::readonly_property59", %"class.boost::unit_test::test_results::readonly_property59", %"class.boost::unit_test::test_results::readonly_property59", %"class.boost::unit_test::test_results::readonly_property59", %"class.boost::unit_test::test_results::readonly_property59", %"class.boost::unit_test::test_results::readonly_property63", %"class.boost::unit_test::test_results::readonly_property63", %"class.boost::unit_test::test_results::readonly_property63", [5 x i8] }>
%"class.boost::unit_test::test_results::readonly_property59" = type { %"class.boost::unit_test::readonly_property" }
%"class.boost::unit_test::test_results::readonly_property63" = type { %"class.boost::unit_test::readonly_property.50" }
%"class.boost::unit_test::readonly_property.50" = type { %"class.boost::unit_test::class_property.51" }
%"class.boost::unit_test::class_property.51" = type { i8 }

@_ZN5boost9unit_test12_GLOBAL__N_117results_collectorE = internal global ptr null, align 8

; Function Attrs: mustprogress nounwind uwtable
define linkonce_odr hidden noundef zeroext i1 @_ZNK5boost9unit_test14class_propertyIbEntEv(ptr noundef nonnull align 1 dereferenceable(1) %0) #5 comdat align 2 {
  %2 = alloca ptr, align 8
  store ptr %0, ptr %2, align 8, !tbaa !3
  %3 = load ptr, ptr %2, align 8
  %4 = getelementptr inbounds nuw %"class.boost::unit_test::class_property.51", ptr %3, i32 0, i32 0
  %5 = load i8, ptr %4, align 1, !tbaa !35, !range !37, !noundef !38
  %6 = trunc i8 %5 to i1
  %7 = xor i1 %6, true
  ret i1 %7
}

; Function Attrs: mustprogress nounwind uwtable
define linkonce_odr hidden noundef nonnull align 8 dereferenceable(8) ptr @_ZNK5boost9unit_test14class_propertyImEcvRKmEv(ptr noundef nonnull align 8 dereferenceable(8) %0) #5 comdat align 2 {
  %2 = alloca ptr, align 8
  store ptr %0, ptr %2, align 8, !tbaa !3
  %3 = load ptr, ptr %2, align 8
  %4 = getelementptr inbounds nuw %"class.boost::unit_test::class_property", ptr %3, i32 0, i32 0
  ret ptr %4
}

; Function Attrs: mustprogress nounwind uwtable
define linkonce_odr hidden noundef ptr @_ZNK5boost10scoped_ptrINS_9unit_test16results_reporter6formatEEptEv(ptr noundef nonnull align 8 dereferenceable(8) %0) #5 comdat align 2 {
  %2 = alloca ptr, align 8
  store ptr %0, ptr %2, align 8, !tbaa !3
  %3 = load ptr, ptr %2, align 8
  %4 = getelementptr inbounds nuw %"class.boost::scoped_ptr.0", ptr %3, i32 0, i32 0
  %5 = load ptr, ptr %4, align 8, !tbaa !34
  ret ptr %5
}

; Function Attrs: mustprogress uwtable
define internal noundef zeroext i1 @_ZN5boost9unit_test16results_reporter12_GLOBAL__N_121results_reporter_impl16test_suite_startERKNS0_10test_suiteE(ptr noundef nonnull align 8 dereferenceable(40) %0, ptr noundef nonnull align 8 dereferenceable(384) %1) unnamed_addr #4 align 2 {
  %3 = alloca i1, align 1
  %4 = alloca ptr, align 8
  %5 = alloca ptr, align 8
  store ptr %0, ptr %4, align 8, !tbaa !3
  store ptr %1, ptr %5, align 8, !tbaa !3
  %6 = load ptr, ptr %4, align 8
  %7 = getelementptr inbounds nuw %"struct.boost::unit_test::results_reporter::(anonymous namespace)::results_reporter_impl", ptr %6, i32 0, i32 4
  %8 = call noundef ptr @_ZNK5boost10scoped_ptrINS_9unit_test16results_reporter6formatEEptEv(ptr noundef nonnull align 8 dereferenceable(8) %7) #3
  %9 = load ptr, ptr %5, align 8, !tbaa !3
  %10 = getelementptr inbounds i8, ptr %9, i64 8
  %11 = getelementptr inbounds nuw %"struct.boost::unit_test::results_reporter::(anonymous namespace)::results_reporter_impl", ptr %6, i32 0, i32 1
  %12 = load ptr, ptr %11, align 8, !tbaa !15
  %13 = load ptr, ptr %8, align 8, !tbaa !16
  %14 = getelementptr inbounds ptr, ptr %13, i64 4
  %15 = load ptr, ptr %14, align 8
  call void %15(ptr noundef nonnull align 8 dereferenceable(8) %8, ptr noundef nonnull align 8 dereferenceable(280) %10, ptr noundef nonnull align 8 dereferenceable(8) %12)
  %16 = getelementptr inbounds nuw %"struct.boost::unit_test::results_reporter::(anonymous namespace)::results_reporter_impl", ptr %6, i32 0, i32 3
  %17 = load i32, ptr %16, align 8, !tbaa !9
  %18 = icmp eq i32 %17, 3
  br i1 %18, label %19, label %30

19:                                               ; preds = %2
  %20 = load ptr, ptr @_ZN5boost9unit_test12_GLOBAL__N_117results_collectorE, align 8, !tbaa !3
  %21 = load ptr, ptr %5, align 8, !tbaa !3
  %22 = getelementptr inbounds i8, ptr %21, i64 8
  %23 = getelementptr inbounds nuw %"class.boost::unit_test::test_unit", ptr %22, i32 0, i32 4
  %24 = call noundef nonnull align 8 dereferenceable(8) ptr @_ZNK5boost9unit_test14class_propertyImEcvRKmEv(ptr noundef nonnull align 8 dereferenceable(8) %23)
  %25 = load i64, ptr %24, align 8, !tbaa !31
  %26 = call noundef nonnull align 8 dereferenceable(107) ptr @_ZNK5boost9unit_test19results_collector_t7resultsEm(ptr noundef nonnull align 8 dereferenceable(8) %20, i64 noundef %25)
  %27 = getelementptr inbounds nuw %"class.boost::unit_test::test_results", ptr %26, i32 0, i32 14
  %28 = call noundef zeroext i1 @_ZNK5boost9unit_test14class_propertyIbEntEv(ptr noundef nonnull align 1 dereferenceable(1) %27)
  br i1 %28, label %29, label %30

29:                                               ; preds = %19
  store i1 true, ptr %3, align 1
  br label %40

30:                                               ; preds = %19, %2
  %31 = getelementptr inbounds nuw %"struct.boost::unit_test::results_reporter::(anonymous namespace)::results_reporter_impl", ptr %6, i32 0, i32 4
  %32 = call noundef ptr @_ZNK5boost10scoped_ptrINS_9unit_test16results_reporter6formatEEptEv(ptr noundef nonnull align 8 dereferenceable(8) %31) #3
  %33 = load ptr, ptr %5, align 8, !tbaa !3
  %34 = getelementptr inbounds i8, ptr %33, i64 8
  %35 = getelementptr inbounds nuw %"struct.boost::unit_test::results_reporter::(anonymous namespace)::results_reporter_impl", ptr %6, i32 0, i32 1
  %36 = load ptr, ptr %35, align 8, !tbaa !15
  %37 = load ptr, ptr %32, align 8, !tbaa !16
  %38 = getelementptr inbounds ptr, ptr %37, i64 5
  %39 = load ptr, ptr %38, align 8
  call void %39(ptr noundef nonnull align 8 dereferenceable(8) %32, ptr noundef nonnull align 8 dereferenceable(280) %34, ptr noundef nonnull align 8 dereferenceable(8) %36)
  store i1 false, ptr %3, align 1
  br label %40

40:                                               ; preds = %30, %29
  %41 = load i1, ptr %3, align 1
  ret i1 %41
}