; Function Attrs: mustprogress uwtable
define internal noundef zeroext i1 @_ZN5boost9unit_test16results_reporter12_GLOBAL__N_121results_reporter_impl16test_suite_startERKNS0_10test_suiteE(ptr nocapture noundef nonnull readonly align 8 dereferenceable(40) %0, ptr noundef nonnull align 8 dereferenceable(384) %1) unnamed_addr #3 align 2 {
  %3 = getelementptr inbounds nuw i8, ptr %0, i64 32
  %4 = load ptr, ptr %3, align 8, !tbaa !38
  %5 = getelementptr inbounds i8, ptr %1, i64 8
  %6 = getelementptr inbounds nuw i8, ptr %0, i64 8
  %7 = load ptr, ptr %6, align 8, !tbaa !13
  %8 = load ptr, ptr %4, align 8, !tbaa !14
  %9 = getelementptr inbounds i8, ptr %8, i64 32
  %10 = load ptr, ptr %9, align 8
  tail call void %10(ptr noundef nonnull align 8 dereferenceable(8) %4, ptr noundef nonnull align 8 dereferenceable(280) %5, ptr noundef nonnull align 8 dereferenceable(8) %7)
  %11 = getelementptr inbounds nuw i8, ptr %0, i64 24
  %12 = load i32, ptr %11, align 8, !tbaa !4
  %13 = icmp eq i32 %12, 3
  br i1 %13, label %14, label %22

14:                                               ; preds = %2
  %15 = load ptr, ptr @_ZN5boost9unit_test12_GLOBAL__N_117results_collectorE, align 8, !tbaa !16
  %16 = getelementptr inbounds i8, ptr %1, i64 56
  %17 = load i64, ptr %16, align 8, !tbaa !39
  %18 = tail call noundef nonnull align 8 dereferenceable(107) ptr @_ZNK5boost9unit_test19results_collector_t7resultsEm(ptr noundef nonnull align 8 dereferenceable(8) %15, i64 noundef %17)
  %19 = getelementptr inbounds nuw i8, ptr %18, i64 105
  %20 = load i8, ptr %19, align 1, !tbaa !40, !range !42, !noundef !43
  %21 = trunc nuw i8 %20 to i1
  br i1 %21, label %22, label %28

22:                                               ; preds = %14, %2
  %23 = load ptr, ptr %3, align 8, !tbaa !38
  %24 = load ptr, ptr %6, align 8, !tbaa !13
  %25 = load ptr, ptr %23, align 8, !tbaa !14
  %26 = getelementptr inbounds i8, ptr %25, i64 40
  %27 = load ptr, ptr %26, align 8
  tail call void %27(ptr noundef nonnull align 8 dereferenceable(8) %23, ptr noundef nonnull align 8 dereferenceable(280) %5, ptr noundef nonnull align 8 dereferenceable(8) %24)
  br label %28

28:                                               ; preds = %14, %22
  %.0 = phi i1 [ false, %22 ], [ true, %14 ]
  ret i1 %.0
}